; Function Attrs: mustprogress nofree norecurse nosync nounwind willreturn memory(none) uwtable
define float @stbir__filter_mitchell(float noundef %0, float %1, ptr readnone captures(none) %2) #2 {
  %4 = fcmp olt float %0, 0.000000e+00
  %5 = fneg float %0
  %.011 = select i1 %4, float %5, float %0
  %6 = fcmp olt float %.011, 1.000000e+00
  br i1 %6, label %7, label %14

7:                                                ; preds = %3
  %8 = fmul float %.011, %.011
  %9 = fmul float %.011, 2.100000e+01
  %10 = fadd float %9, -3.600000e+01
  %11 = fmul float %8, %10
  %12 = fadd float %11, 1.600000e+01
  %13 = fdiv float %12, 1.800000e+01
  br label %24

14:                                               ; preds = %3
  %15 = fcmp olt float %.011, 2.000000e+00
  br i1 %15, label %16, label %24

16:                                               ; preds = %14
  %17 = fmul float %.011, 7.000000e+00
  %18 = fsub float 3.600000e+01, %17
  %19 = fmul float %.011, %18
  %20 = fadd float %19, -6.000000e+01
  %21 = fmul float %.011, %20
  %22 = fadd float %21, 3.200000e+01
  %23 = fdiv float %22, 1.800000e+01
  br label %24

24:                                               ; preds = %14, %16, %7
  %.0 = phi float [ %13, %7 ], [ %23, %16 ], [ 0.000000e+00, %14 ]
  ret float %.0
}